target datalayout = "e-m:e-p270:32:32-p271:32:32-p272:64:64-i64:64-i128:128-f80:128-n8:16:32:64-S128"
target triple = "x86_64-pc-linux-gnu"

%struct.repository = type { ptr, ptr, ptr, ptr, ptr, %struct.strmap, %struct.strmap, %struct.repo_path_cache, ptr, ptr, ptr, ptr, %struct.repo_settings, ptr, ptr, ptr, ptr, ptr, ptr, i32, i32, i32, ptr, ptr, i32, i32, i8 }
%struct.strmap = type { %struct.hashmap, ptr, i8 }
%struct.hashmap = type { ptr, ptr, ptr, i32, i32, i32, i32, i8 }
%struct.repo_path_cache = type { ptr, ptr, ptr, ptr, ptr, ptr, ptr }
%struct.repo_settings = type { i32, i32, i32, i32, i32, i32, i32, i32, i32, i32, i32, i32, ptr, i32, i32, i32, i32, i32, i32, i32, i64, i64, i64 }
%struct.raw_object_store = type { ptr, ptr, ptr, i32, ptr, ptr, i8, %union.pthread_mutex_t, ptr, i8, ptr, ptr, %struct.list_head, %struct.anon, %struct.hashmap, i64, i8 }
%union.pthread_mutex_t = type { %struct.__pthread_mutex_s }
%struct.__pthread_mutex_s = type { i32, i32, i32, i32, i32, i16, i16, %struct.__pthread_internal_list }
%struct.__pthread_internal_list = type { ptr, ptr }
%struct.list_head = type { ptr, ptr }
%struct.anon = type { ptr, i32 }

; Function Attrs: nounwind uwtable
define dso_local void @prepare_replace_object(ptr noundef %0) #0 {
  %2 = alloca ptr, align 8
  store ptr %0, ptr %2, align 8, !tbaa !4
  %3 = load ptr, ptr %2, align 8, !tbaa !4
  %4 = getelementptr inbounds nuw %struct.repository, ptr %3, i32 0, i32 2
  %5 = load ptr, ptr %4, align 8, !tbaa !9
  %6 = getelementptr inbounds nuw %struct.raw_object_store, ptr %5, i32 0, i32 6
  %7 = load i8, ptr %6, align 8
  %8 = and i8 %7, 1
  %9 = zext i8 %8 to i32
  %10 = icmp ne i32 %9, 0
  br i1 %10, label %11, label %12

11:                                               ; preds = %1
  br label %59

12:                                               ; preds = %1
  %13 = load ptr, ptr %2, align 8, !tbaa !4
  %14 = getelementptr inbounds nuw %struct.repository, ptr %13, i32 0, i32 2
  %15 = load ptr, ptr %14, align 8, !tbaa !9
  %16 = getelementptr inbounds nuw %struct.raw_object_store, ptr %15, i32 0, i32 7
  %17 = call i32 @pthread_mutex_lock(ptr noundef %16) #8
  %18 = load ptr, ptr %2, align 8, !tbaa !4
  %19 = getelementptr inbounds nuw %struct.repository, ptr %18, i32 0, i32 2
  %20 = load ptr, ptr %19, align 8, !tbaa !9
  %21 = getelementptr inbounds nuw %struct.raw_object_store, ptr %20, i32 0, i32 6
  %22 = load i8, ptr %21, align 8
  %23 = and i8 %22, 1
  %24 = zext i8 %23 to i32
  %25 = icmp ne i32 %24, 0
  br i1 %25, label %26, label %32

26:                                               ; preds = %12
  %27 = load ptr, ptr %2, align 8, !tbaa !4
  %28 = getelementptr inbounds nuw %struct.repository, ptr %27, i32 0, i32 2
  %29 = load ptr, ptr %28, align 8, !tbaa !9
  %30 = getelementptr inbounds nuw %struct.raw_object_store, ptr %29, i32 0, i32 7
  %31 = call i32 @pthread_mutex_unlock(ptr noundef %30) #8
  br label %59

32:                                               ; preds = %12
  %33 = call ptr @xmalloc(i64 noundef 48)
  %34 = load ptr, ptr %2, align 8, !tbaa !4
  %35 = getelementptr inbounds nuw %struct.repository, ptr %34, i32 0, i32 2
  %36 = load ptr, ptr %35, align 8, !tbaa !9
  %37 = getelementptr inbounds nuw %struct.raw_object_store, ptr %36, i32 0, i32 5
  store ptr %33, ptr %37, align 8, !tbaa !30
  %38 = load ptr, ptr %2, align 8, !tbaa !4
  %39 = getelementptr inbounds nuw %struct.repository, ptr %38, i32 0, i32 2
  %40 = load ptr, ptr %39, align 8, !tbaa !9
  %41 = getelementptr inbounds nuw %struct.raw_object_store, ptr %40, i32 0, i32 5
  %42 = load ptr, ptr %41, align 8, !tbaa !30
  call void @oidmap_init(ptr noundef %42, i64 noundef 0)
  %43 = load ptr, ptr %2, align 8, !tbaa !4
  %44 = call ptr @get_main_ref_store(ptr noundef %43)
  %45 = load ptr, ptr %2, align 8, !tbaa !4
  %46 = call i32 @refs_for_each_replace_ref(ptr noundef %44, ptr noundef @register_replace_ref, ptr noundef %45)
  %47 = load ptr, ptr %2, align 8, !tbaa !4
  %48 = getelementptr inbounds nuw %struct.repository, ptr %47, i32 0, i32 2
  %49 = load ptr, ptr %48, align 8, !tbaa !9
  %50 = getelementptr inbounds nuw %struct.raw_object_store, ptr %49, i32 0, i32 6
  %51 = load i8, ptr %50, align 8
  %52 = and i8 %51, -2
  %53 = or i8 %52, 1
  store i8 %53, ptr %50, align 8
  %54 = load ptr, ptr %2, align 8, !tbaa !4
  %55 = getelementptr inbounds nuw %struct.repository, ptr %54, i32 0, i32 2
  %56 = load ptr, ptr %55, align 8, !tbaa !9
  %57 = getelementptr inbounds nuw %struct.raw_object_store, ptr %56, i32 0, i32 7
  %58 = call i32 @pthread_mutex_unlock(ptr noundef %57) #8
  br label %59

59:                                               ; preds = %32, %26, %11
  ret void
}