; Function Attrs: nounwind uwtable
define dso_local void @prepare_replace_object(ptr noundef %0) local_unnamed_addr #0 {
  %2 = getelementptr inbounds nuw i8, ptr %0, i64 16
  %3 = load ptr, ptr %2, align 8, !tbaa !4
  %4 = getelementptr inbounds nuw i8, ptr %3, i64 48
  %5 = load i8, ptr %4, align 8
  %6 = and i8 %5, 1
  %.not = icmp eq i8 %6, 0
  br i1 %.not, label %7, label %27

7:                                                ; preds = %1
  %8 = getelementptr inbounds nuw i8, ptr %3, i64 56
  %9 = tail call i32 @pthread_mutex_lock(ptr noundef nonnull %8) #9
  %10 = load ptr, ptr %2, align 8, !tbaa !4
  %11 = getelementptr inbounds nuw i8, ptr %10, i64 48
  %12 = load i8, ptr %11, align 8
  %13 = and i8 %12, 1
  %.not10 = icmp eq i8 %13, 0
  br i1 %.not10, label %14, label %.sink.split

14:                                               ; preds = %7
  %15 = tail call ptr @xmalloc(i64 noundef 48) #9
  %16 = load ptr, ptr %2, align 8, !tbaa !4
  %17 = getelementptr inbounds nuw i8, ptr %16, i64 40
  store ptr %15, ptr %17, align 8, !tbaa !28
  tail call void @oidmap_init(ptr noundef %15, i64 noundef 0) #9
  %18 = tail call ptr @get_main_ref_store(ptr noundef nonnull %0) #9
  %19 = tail call i32 @refs_for_each_replace_ref(ptr noundef %18, ptr noundef nonnull @register_replace_ref, ptr noundef nonnull %0) #9
  %20 = load ptr, ptr %2, align 8, !tbaa !4
  %21 = getelementptr inbounds nuw i8, ptr %20, i64 48
  %22 = load i8, ptr %21, align 8
  %23 = or i8 %22, 1
  store i8 %23, ptr %21, align 8
  %24 = load ptr, ptr %2, align 8, !tbaa !4
  br label %.sink.split

.sink.split:                                      ; preds = %7, %14
  %.sink11 = phi ptr [ %24, %14 ], [ %10, %7 ]
  %25 = getelementptr inbounds nuw i8, ptr %.sink11, i64 56
  %26 = tail call i32 @pthread_mutex_unlock(ptr noundef nonnull %25) #9
  br label %27

27:                                               ; preds = %.sink.split, %1
  ret void
}